Certificate:
    Data:
        Version: 3 (0x2)
        Serial Number:
            08:30:65:c2:e8:4e:cd:a9:9d:4e:a4:78:fe:fb:e2:7c:9c:fa:a7:da
        Signature Algorithm: sha256WithRSAEncryption
        Issuer: C=RU, O=NOKOGERRA-LAB, CN=s1-sub-ca-01
        Validity
            Not Before: Apr 20 10:08:18 2025 GMT
            Not After : Apr 20 10:08:18 2026 GMT
        Subject: C=RU, ST=Moscow, O=NOKOGERRA-LAB, CN=s1-nginx01.nokogerra.lab
        Subject Public Key Info:
            Public Key Algorithm: rsaEncryption
                Public-Key: (2048 bit)
                Modulus:
                    00:81:91:67:48:a2:5a:0d:c7:4e:93:3c:46:ac:79:
                    88:33:61:c7:37:e6:f3:62:01:a3:67:a3:52:4a:49:
                    09:f1:44:48:1f:2c:47:3f:64:7a:2c:5a:02:e1:68:
                    91:9b:19:f1:28:0e:7c:3f:6e:0b:30:98:5a:fc:b1:
                    b0:53:eb:17:7e:8f:83:b9:d4:82:7e:27:cb:fb:74:
                    12:a0:7d:e0:61:db:f6:2e:ca:6c:8c:09:c3:fa:6a:
                    4b:27:e2:a8:9e:28:64:d0:2a:09:16:08:06:e3:13:
                    0e:50:07:87:f2:58:fa:c3:2d:19:8f:c9:92:46:76:
                    6a:95:fd:3a:67:06:77:d1:47:60:a2:ff:16:9b:c1:
                    f0:29:fc:65:64:cb:87:d3:84:8d:71:01:be:41:b2:
                    d5:02:e1:8c:72:d9:93:22:42:e2:0b:de:5f:4b:c3:
                    53:69:15:ea:f1:c2:be:32:35:49:5f:30:e3:e6:cd:
                    70:ed:c0:31:17:7e:d6:04:b6:d2:ed:48:ae:19:23:
                    56:c6:90:51:be:5e:91:03:18:60:16:cb:79:0a:33:
                    27:74:cf:6f:35:2b:e1:fd:d7:ed:c9:40:fd:21:fe:
                    a5:88:d6:a3:c2:c0:10:be:2e:3c:48:f3:dd:11:e9:
                    09:9a:6f:20:72:12:ba:5a:65:7d:38:27:92:21:e7:
                    fb:a7
                Exponent: 65537 (0x10001)
        X509v3 extensions:
            Authority Information Access: 
                CA Issuers - URI:http://s1-sub-ca-01.nokogerra.lab/s1-sub-ca-01.crt
            X509v3 Authority Key Identifier: 
                29:6D:53:59:9E:D7:63:D8:2E:36:9C:F1:20:D3:71:9D:A6:4B:ED:56
            X509v3 Basic Constraints: critical
                CA:FALSE
            X509v3 CRL Distribution Points: 
                Full Name:
                  URI:http://s1-sub-ca-01.nokogerra.lab/s1-sub-ca-01.crl
            X509v3 Extended Key Usage: 
                TLS Web Client Authentication, TLS Web Server Authentication
            X509v3 Key Usage: critical
                Digital Signature, Key Encipherment
            X509v3 Subject Key Identifier: 
                05:70:44:C1:42:24:1E:87:04:B3:FC:97:6B:CA:F0:99:7E:E1:BB:2D
            X509v3 Name Constraints: 
                Permitted:
                  DNS:nokogerra.lab
                  DNS:nokogerra2.lab
                  IP:0.0.0.0/0.0.0.0
                  IP:0:0:0:0:0:0:0:0/0:0:0:0:0:0:0:0
            X509v3 Subject Alternative Name: 
                DNS:s1-nginx01.nokogerra.lab, IP Address:10.215.102.21
    Signature Algorithm: sha256WithRSAEncryption
    Signature Value:
        56:83:fd:1c:7b:9b:f4:bc:9e:3d:ee:f0:ad:2c:93:c3:7f:68:
        1f:30:d5:88:b1:0d:04:20:53:2b:b8:b3:18:c5:4d:5a:39:27:
        59:da:af:a9:be:b0:7f:be:fe:c2:df:93:8e:84:92:54:4c:1f:
        d5:7a:ad:ec:70:69:92:50:4b:0b:6d:70:ea:66:5d:7f:76:cc:
        16:cd:be:19:a1:04:ae:5b:9e:d6:19:0d:44:ab:f6:b1:fa:5d:
        5e:fe:62:b8:fa:63:d1:76:48:fd:37:a2:74:fe:61:71:5e:81:
        9c:ff:da:8c:86:64:c8:25:f5:38:94:1b:f2:9c:38:87:c7:fb:
        ce:32:78:c1:f4:17:44:2b:ed:71:42:e7:57:fc:2b:9c:02:99:
        a5:94:c8:04:d5:77:4d:43:7a:9b:9a:48:c2:48:ca:95:5e:34:
        39:23:a8:fb:cd:67:1c:34:29:f1:e9:74:04:c0:31:41:31:60:
        4c:c1:f4:af:98:72:59:df:30:b9:5d:9d:67:73:14:68:fd:d4:
        c9:84:97:0e:64:f7:f6:a1:fa:5a:77:46:67:d5:39:8e:38:7a:
        ce:51:cc:b9:0c:89:4f:c4:ab:cd:7a:eb:4c:a0:da:b2:05:ec:
        a3:29:37:54:89:53:b8:e7:e4:b4:07:f4:68:c4:f9:25:ea:10:
        09:9e:50:59
-----BEGIN CERTIFICATE-----
MIIExjCCA66gAwIBAgIUCDBlwuhOzamdTqR4/vvifJz6p9owDQYJKoZIhvcNAQEL
BQAwPDELMAkGA1UEBhMCUlUxFjAUBgNVBAoMDU5PS09HRVJSQS1MQUIxFTATBgNV
BAMMDHMxLXN1Yi1jYS0wMTAeFw0yNTA0MjAxMDA4MThaFw0yNjA0MjAxMDA4MTha
MFkxCzAJBgNVBAYTAlJVMQ8wDQYDVQQIDAZNb3Njb3cxFjAUBgNVBAoMDU5PS09H
RVJSQS1MQUIxITAfBgNVBAMMGHMxLW5naW54MDEubm9rb2dlcnJhLmxhYjCCASIw
DQYJKoZIhvcNAQEBBQADggEPADCCAQoCggEBAIGRZ0iiWg3HTpM8Rqx5iDNhxzfm
82IBo2ejUkpJCfFESB8sRz9keixaAuFokZsZ8SgOfD9uCzCYWvyxsFPrF36Pg7nU
gn4ny/t0EqB94GHb9i7KbIwJw/pqSyfiqJ4oZNAqCRYIBuMTDlAHh/JY+sMtGY/J
kkZ2apX9OmcGd9FHYKL/FpvB8Cn8ZWTLh9OEjXEBvkGy1QLhjHLZkyJC4gveX0vD
U2kV6vHCvjI1SV8w4+bNcO3AMRd+1gS20u1IrhkjVsaQUb5ekQMYYBbLeQozJ3TP
bzUr4f3X7clA/SH+pYjWo8LAEL4uPEjz3RHpCZpvIHISulplfTgnkiHn+6cCAwEA
AaOCAaEwggGdME4GCCsGAQUFBwEBBEIwQDA+BggrBgEFBQcwAoYyaHR0cDovL3Mx
LXN1Yi1jYS0wMS5ub2tvZ2VycmEubGFiL3MxLXN1Yi1jYS0wMS5jcnQwHwYDVR0j
BBgwFoAUKW1TWZ7XY9guNpzxINNxnaZL7VYwDAYDVR0TAQH/BAIwADBDBgNVHR8E
PDA6MDigNqA0hjJodHRwOi8vczEtc3ViLWNhLTAxLm5va29nZXJyYS5sYWIvczEt
c3ViLWNhLTAxLmNybDAdBgNVHSUEFjAUBggrBgEFBQcDAgYIKwYBBQUHAwEwDgYD
VR0PAQH/BAQDAgWgMB0GA1UdDgQWBBQFcETBQiQehwSz/JdryvCZfuG7LTBeBgNV
HR4EVzBVoFMwD4INbm9rb2dlcnJhLmxhYjAQgg5ub2tvZ2VycmEyLmxhYjAKhwgA
AAAAAAAAADAihyAAAAAAAAAAAAAAAAAAAAAAAAAAAAAAAAAAAAAAAAAAADApBgNV
HREEIjAgghhzMS1uZ2lueDAxLm5va29nZXJyYS5sYWKHBArXZhUwDQYJKoZIhvcN
AQELBQADggEBAFaD/Rx7m/S8nj3u8K0sk8N/aB8w1YixDQQgUyu4sxjFTVo5J1na
r6m+sH++/sLfk46EklRMH9V6rexwaZJQSwttcOpmXX92zBbNvhmhBK5bntYZDUSr
9rH6XV7+Yrj6Y9F2SP03onT+YXFegZz/2oyGZMgl9TiUG/KcOIfH+84yeMH0F0Qr
7XFC51f8K5wCmaWUyATVd01DepuaSMJIypVeNDkjqPvNZxw0KfHpdATAMUExYEzB
9K+YclnfMLldnWdzFGj91MmElw5k9/ah+lp3RmfVOY44es5RzLkMiU/Eq81660yg
2rIF7KMpN1SJU7jn5LQH9GjE+SXqEAmeUFk=
-----END CERTIFICATE-----
