Certificate:
    Data:
        Version: 3 (0x2)
        Serial Number:
            3a:df:74:8a:79:82:6b:db:43:f8:ed:db:ee:01:f7:3f
        Signature Algorithm: sha256WithRSAEncryption
        Issuer: C=RU, O=NOKOGERRA-LAB, CN=s1-root-ca-01
        Validity
            Not Before: Jul  5 08:43:26 2024 GMT
            Not After : Jul  3 08:43:26 2034 GMT
        Subject: C=RU, O=NOKOGERRA-LAB, CN=s1-root-ca-01
        Subject Public Key Info:
            Public Key Algorithm: rsaEncryption
                Public-Key: (4096 bit)
                Modulus:
                    00:a7:de:6d:86:94:25:29:db:82:5e:34:83:c4:1c:
                    92:cd:44:1b:9a:e1:04:9b:77:f5:59:b0:d6:1b:f2:
                    d6:35:84:5d:16:20:cd:75:c1:ba:2f:23:c3:43:a3:
                    08:66:41:8a:9a:26:f1:40:ac:6c:2a:f7:ce:48:25:
                    da:ac:af:8d:3a:d1:58:c4:56:c2:a9:d3:5a:b7:f8:
                    a5:eb:b1:45:b4:ce:9b:b1:73:01:ba:f8:ab:4f:20:
                    ec:82:72:15:53:b2:95:7b:00:79:90:c9:85:e4:cc:
                    1d:ee:82:f5:1a:2c:1b:da:6c:84:a3:3e:f9:fc:6f:
                    dc:0c:71:6f:8e:47:a5:b0:17:c6:09:fb:e9:b4:6f:
                    f3:e7:ae:4d:5e:0f:7a:0d:04:55:9f:81:e7:70:88:
                    8f:f3:d5:e1:d5:ea:a6:05:08:30:e4:43:f8:7c:5c:
                    fc:41:be:c9:31:f2:62:c1:68:4b:ca:75:d3:c3:65:
                    e1:d4:5a:49:29:b5:0f:6d:65:46:14:85:75:3b:7f:
                    c6:85:52:73:62:97:9e:14:d0:19:a0:71:4d:ab:27:
                    f6:5a:84:6f:68:18:39:66:92:3d:95:e3:9c:94:29:
                    05:52:cb:ff:90:3c:fb:4d:a4:c0:fb:11:3d:05:ac:
                    6a:72:a0:66:e6:ea:b6:61:ef:ae:e5:89:18:d6:c8:
                    d8:f1:a1:34:42:de:3f:75:2f:80:a6:c8:36:5d:1a:
                    5e:fb:f9:50:dc:b7:c6:87:26:a9:2a:12:c2:86:cb:
                    6a:c7:9b:1c:06:86:9e:f1:b5:14:f8:8d:be:11:54:
                    8b:98:7b:23:08:b4:96:3b:31:67:94:da:71:81:b9:
                    be:42:e3:8e:23:d3:8f:6c:b5:72:4d:94:fc:e2:36:
                    64:92:46:70:9e:7e:c3:af:51:66:e8:c9:bf:92:e3:
                    f6:0e:48:40:22:98:b5:b3:2f:e2:40:9d:35:90:44:
                    20:76:c5:07:75:13:b8:fa:8a:12:44:13:9e:df:14:
                    4b:15:5d:21:68:af:e0:fe:92:39:80:d2:ac:d4:ea:
                    bb:12:49:6c:01:ce:68:b0:32:c5:0c:7f:1a:76:ca:
                    80:26:f1:db:8f:89:27:14:c5:a0:18:28:7e:52:5a:
                    e2:92:b2:ec:78:fe:3f:0c:bd:c5:3d:b8:e0:2b:a5:
                    85:1c:42:4f:bc:9c:b9:65:a6:4d:7e:6c:1e:a7:d1:
                    c1:54:2c:db:8a:05:7a:b3:ef:1c:52:ee:88:73:b9:
                    6a:7b:40:db:0c:02:35:9f:e8:86:e7:6b:fe:f1:70:
                    56:e9:16:b6:43:a2:11:c0:d1:d8:79:34:1a:84:b8:
                    d4:61:aa:a3:da:3c:62:d9:f6:99:f6:18:ef:01:d0:
                    8f:a6:e1
                Exponent: 65537 (0x10001)
        X509v3 extensions:
            X509v3 Basic Constraints: critical
                CA:TRUE
            X509v3 Key Usage: critical
                Certificate Sign, CRL Sign
            X509v3 Subject Key Identifier: 
                DF:E1:2D:F8:51:75:4E:1E:C6:D7:3E:75:F4:95:BB:1F:34:3E:B0:26
            Authority Information Access: 
                CA Issuers - URI:http://s1-root-ca-01.nokogerra.lab/s1-root-ca-01.crt
            X509v3 CRL Distribution Points: 
                Full Name:
                  URI:http://s1-root-ca-01.nokogerra.lab/s1-root-ca-01.crl
    Signature Algorithm: sha256WithRSAEncryption
    Signature Value:
        1e:d0:ec:01:e0:3a:a5:15:5e:06:c5:1b:ab:a1:af:be:77:d8:
        22:bc:8a:45:a4:83:82:2a:54:ba:dd:c6:0f:28:7f:24:33:72:
        d3:3c:e4:64:da:64:09:4e:89:28:a9:05:1e:c9:99:86:8f:33:
        df:b1:46:23:96:3d:11:9a:ff:71:ef:e4:9d:37:42:74:6a:9b:
        bd:90:eb:3d:b0:82:99:69:2f:2e:25:61:8b:5f:e9:2c:43:7e:
        64:e6:5e:c5:8a:c5:bf:47:47:e2:b3:a9:8b:0d:be:46:49:fd:
        a6:f1:a4:5a:c5:da:93:1e:c6:61:be:c5:62:38:28:10:cf:c6:
        7e:6a:7b:0f:23:ca:a6:6d:dc:c2:bc:38:7c:61:58:7e:83:3f:
        65:5b:7f:31:a2:8d:70:04:4f:56:52:d0:a5:19:38:59:7f:2f:
        82:9e:6b:e6:1e:ff:aa:c3:df:96:5b:09:a8:39:a4:24:5d:fd:
        26:f4:69:04:dd:e6:5d:e4:52:c2:e5:47:4c:d9:dd:09:29:6a:
        cf:bb:29:07:43:d9:29:4f:60:7e:81:57:99:da:fa:35:76:c3:
        3c:3a:3d:96:45:ad:3e:cf:91:6f:8e:3d:31:7a:43:61:aa:7a:
        18:05:33:ea:33:77:a1:3a:6b:09:1b:ba:a9:23:f7:fb:96:d6:
        2e:96:d4:f3:32:df:0f:c1:32:12:df:7a:7f:42:e4:27:9e:81:
        60:f5:bd:3e:35:36:9b:46:9e:8b:9f:a2:24:fc:27:e9:86:3c:
        99:02:60:fb:0b:22:f6:ee:cb:30:71:f0:28:bc:8c:14:d2:3d:
        27:62:d0:49:fc:c8:67:ec:f8:ff:f9:39:29:78:31:90:11:15:
        b7:8d:db:e5:05:26:ba:e8:f3:9d:5e:87:b7:8d:22:69:f9:64:
        33:4a:34:65:bc:d7:9d:c4:b9:f1:3c:3c:7b:80:a7:d3:e5:32:
        f6:66:89:b6:6e:8f:88:71:61:d6:c3:ec:e8:60:06:37:39:76:
        f6:cc:39:20:0c:69:4c:cb:07:89:9e:17:cc:e1:22:66:a5:37:
        f3:1e:7d:17:d6:4b:22:fa:0c:7c:f8:43:ed:0e:9a:f8:9c:84:
        7b:7a:29:50:99:78:b5:7c:95:ca:05:97:3e:18:10:37:a1:0a:
        97:72:66:9b:1f:a6:61:09:80:8a:6c:ec:df:69:f3:88:b5:6b:
        b6:35:1e:0b:47:80:7a:e7:77:d5:5f:6f:6e:f3:2b:fc:47:cb:
        ac:8b:ef:70:6d:8c:41:15:8d:f1:8e:9a:4b:c1:88:78:01:ee:
        e6:b7:4e:6e:b6:52:50:eb:38:b2:69:3a:2a:ae:0c:42:dc:28:
        c2:bb:91:a8:6c:ef:a0:d7
-----BEGIN CERTIFICATE-----
MIIF4TCCA8mgAwIBAgIQOt90inmCa9tD+O3b7gH3PzANBgkqhkiG9w0BAQsFADA9
MQswCQYDVQQGEwJSVTEWMBQGA1UECgwNTk9LT0dFUlJBLUxBQjEWMBQGA1UEAwwN
czEtcm9vdC1jYS0wMTAeFw0yNDA3MDUwODQzMjZaFw0zNDA3MDMwODQzMjZaMD0x
CzAJBgNVBAYTAlJVMRYwFAYDVQQKDA1OT0tPR0VSUkEtTEFCMRYwFAYDVQQDDA1z
MS1yb290LWNhLTAxMIICIjANBgkqhkiG9w0BAQEFAAOCAg8AMIICCgKCAgEAp95t
hpQlKduCXjSDxBySzUQbmuEEm3f1WbDWG/LWNYRdFiDNdcG6LyPDQ6MIZkGKmibx
QKxsKvfOSCXarK+NOtFYxFbCqdNat/il67FFtM6bsXMBuvirTyDsgnIVU7KVewB5
kMmF5Mwd7oL1Giwb2myEoz75/G/cDHFvjkelsBfGCfvptG/z565NXg96DQRVn4Hn
cIiP89Xh1eqmBQgw5EP4fFz8Qb7JMfJiwWhLynXTw2Xh1FpJKbUPbWVGFIV1O3/G
hVJzYpeeFNAZoHFNqyf2WoRvaBg5ZpI9leOclCkFUsv/kDz7TaTA+xE9BaxqcqBm
5uq2Ye+u5YkY1sjY8aE0Qt4/dS+Apsg2XRpe+/lQ3LfGhyapKhLChstqx5scBoae
8bUU+I2+EVSLmHsjCLSWOzFnlNpxgbm+QuOOI9OPbLVyTZT84jZkkkZwnn7Dr1Fm
6Mm/kuP2DkhAIpi1sy/iQJ01kEQgdsUHdRO4+ooSRBOe3xRLFV0haK/g/pI5gNKs
1Oq7EklsAc5osDLFDH8adsqAJvHbj4knFMWgGCh+UlrikrLseP4/DL3FPbjgK6WF
HEJPvJy5ZaZNfmwep9HBVCzbigV6s+8cUu6Ic7lqe0DbDAI1n+iG52v+8XBW6Ra2
Q6IRwNHYeTQahLjUYaqj2jxi2faZ9hjvAdCPpuECAwEAAaOB3DCB2TAPBgNVHRMB
Af8EBTADAQH/MA4GA1UdDwEB/wQEAwIBBjAdBgNVHQ4EFgQU3+Et+FF1Th7G1z51
9JW7HzQ+sCYwUAYIKwYBBQUHAQEERDBCMEAGCCsGAQUFBzAChjRodHRwOi8vczEt
cm9vdC1jYS0wMS5ub2tvZ2VycmEubGFiL3MxLXJvb3QtY2EtMDEuY3J0MEUGA1Ud
HwQ+MDwwOqA4oDaGNGh0dHA6Ly9zMS1yb290LWNhLTAxLm5va29nZXJyYS5sYWIv
czEtcm9vdC1jYS0wMS5jcmwwDQYJKoZIhvcNAQELBQADggIBAB7Q7AHgOqUVXgbF
G6uhr7532CK8ikWkg4IqVLrdxg8ofyQzctM85GTaZAlOiSipBR7JmYaPM9+xRiOW
PRGa/3Hv5J03QnRqm72Q6z2wgplpLy4lYYtf6SxDfmTmXsWKxb9HR+KzqYsNvkZJ
/abxpFrF2pMexmG+xWI4KBDPxn5qew8jyqZt3MK8OHxhWH6DP2VbfzGijXAET1ZS
0KUZOFl/L4Kea+Ye/6rD35ZbCag5pCRd/Sb0aQTd5l3kUsLlR0zZ3Qkpas+7KQdD
2SlPYH6BV5na+jV2wzw6PZZFrT7PkW+OPTF6Q2GqehgFM+ozd6E6awkbuqkj9/uW
1i6W1PMy3w/BMhLfen9C5CeegWD1vT41NptGnoufoiT8J+mGPJkCYPsLIvbuyzBx
8Ci8jBTSPSdi0En8yGfs+P/5OSl4MZARFbeN2+UFJrro851eh7eNImn5ZDNKNGW8
153EufE8PHuAp9PlMvZmibZuj4hxYdbD7OhgBjc5dvbMOSAMaUzLB4meF8zhImal
N/MefRfWSyL6DHz4Q+0OmvichHt6KVCZeLV8lcoFlz4YEDehCpdyZpsfpmEJgIps
7N9p84i1a7Y1HgtHgHrnd9Vfb27zK/xHy6yL73BtjEEVjfGOmkvBiHgB7ua3Tm62
UlDrOLJpOiquDELcKMK7kahs76DX
-----END CERTIFICATE-----
